target datalayout = "e-m:e-p270:32:32-p271:32:32-p272:64:64-i64:64-i128:128-f80:128-n8:16:32:64-S128"
target triple = "x86_64-pc-linux-gnu"

%class.LogTagSet = type { ptr, i64, [5 x i32], [4 x i8], %class.LogOutputList, %class.LogDecorators, ptr }
%class.LogOutputList = type <{ [6 x ptr], i32, [4 x i8] }>
%class.LogDecorators = type { i32 }
%class.GCLogPreciousHandle = type { %class.LogTargetHandle }
%class.LogTargetHandle = type { i32, ptr }
%class.LogTargetImpl = type { i8 }

@_ZN11StringDedup12_initializedE = hidden global i8 0, align 1
@_ZN11StringDedup8_enabledE = hidden global i8 0, align 1
@_ZN11StringDedup21_string_klass_or_nullE = hidden global ptr null, align 8
@_ZN11StringDedup22_enabled_age_thresholdE = hidden global i32 -1, align 4
@_ZN11StringDedup18_enabled_age_limitE = hidden global i32 0, align 4
@UseStringDeduplication = external global i8, align 1
@.str = private unnamed_addr constant [32 x i8] c"String Deduplication is enabled\00", align 1
@_ZN16LogTagSetMappingILN6LogTag4typeE148ELS1_58ELS1_0ELS1_0ELS1_0ELS1_0EE7_tagsetE = linkonce_odr hidden global %class.LogTagSet zeroinitializer, comdat, align 8
@_ZN9vmClasses8_klassesE = external global [0 x ptr], align 8

; Function Attrs: mustprogress nounwind uwtable
define linkonce_odr hidden noundef nonnull align 8 dereferenceable(112) ptr @_ZN16LogTagSetMappingILN6LogTag4typeE148ELS1_58ELS1_0ELS1_0ELS1_0ELS1_0EE6tagsetEv() #1 comdat align 2 {
  ret ptr @_ZN16LogTagSetMappingILN6LogTag4typeE148ELS1_58ELS1_0ELS1_0ELS1_0ELS1_0EE7_tagsetE
}

; Function Attrs: mustprogress nounwind uwtable
define linkonce_odr hidden void @_ZN15LogTargetHandleC2ILN8LogLevel4typeE3ELN6LogTag4typeE148ELS4_58ELS4_0ELS4_0ELS4_0ELS4_0EEERK13LogTargetImplIXT_EXT0_EXT1_EXT2_EXT3_EXT4_EXT5_EE(ptr noundef nonnull align 8 dereferenceable(16) %0, ptr noundef nonnull align 1 dereferenceable(1) %1) unnamed_addr #1 comdat align 2 {
  %3 = alloca ptr, align 8
  %4 = alloca ptr, align 8
  store ptr %0, ptr %3, align 8
  store ptr %1, ptr %4, align 8
  %5 = load ptr, ptr %3, align 8
  %6 = getelementptr inbounds %class.LogTargetHandle, ptr %5, i32 0, i32 0
  store i32 3, ptr %6, align 8
  %7 = getelementptr inbounds %class.LogTargetHandle, ptr %5, i32 0, i32 1
  %8 = call noundef nonnull align 8 dereferenceable(112) ptr @_ZN16LogTagSetMappingILN6LogTag4typeE148ELS1_58ELS1_0ELS1_0ELS1_0ELS1_0EE6tagsetEv()
  store ptr %8, ptr %7, align 8
  ret void
}

; Function Attrs: mustprogress nounwind uwtable
define linkonce_odr hidden void @_ZN13LogTargetImplILN8LogLevel4typeE3ELN6LogTag4typeE148ELS3_58ELS3_0ELS3_0ELS3_0ELS3_0EEC2Ev(ptr noundef nonnull align 1 dereferenceable(1) %0) unnamed_addr #1 comdat align 2 {
  %2 = alloca ptr, align 8
  store ptr %0, ptr %2, align 8
  ret void
}

; Function Attrs: mustprogress nounwind uwtable
define linkonce_odr hidden noundef ptr @_ZN9vmClasses11check_klassEP13InstanceKlass(ptr noundef %0) #1 comdat align 2 {
  %2 = alloca ptr, align 8
  store ptr %0, ptr %2, align 8
  %3 = load ptr, ptr %2, align 8
  ret ptr %3
}

; Function Attrs: mustprogress nounwind uwtable
define linkonce_odr hidden void @_ZN19GCLogPreciousHandleC2E15LogTargetHandle(ptr noundef nonnull align 8 dereferenceable(16) %0, i32 %1, ptr %2) unnamed_addr #1 comdat align 2 {
  %4 = alloca %class.LogTargetHandle, align 8
  %5 = alloca ptr, align 8
  %6 = getelementptr inbounds { i32, ptr }, ptr %4, i32 0, i32 0
  store i32 %1, ptr %6, align 8
  %7 = getelementptr inbounds { i32, ptr }, ptr %4, i32 0, i32 1
  store ptr %2, ptr %7, align 8
  store ptr %0, ptr %5, align 8
  %8 = load ptr, ptr %5, align 8
  %9 = getelementptr inbounds %class.GCLogPreciousHandle, ptr %8, i32 0, i32 0
  call void @llvm.memcpy.p0.p0.i64(ptr align 8 %9, ptr align 8 %4, i64 16, i1 false)
  ret void
}

; Function Attrs: mustprogress nounwind uwtable
define linkonce_odr hidden { i32, ptr } @_ZN15LogTargetHandle6createILN8LogLevel4typeE3ELN6LogTag4typeE148ELS4_58ELS4_0ELS4_0ELS4_0ELS4_0EEES_v() #1 comdat align 2 {
  %1 = alloca %class.LogTargetHandle, align 8
  %2 = alloca %class.LogTargetImpl, align 1
  call void @_ZN13LogTargetImplILN8LogLevel4typeE3ELN6LogTag4typeE148ELS3_58ELS3_0ELS3_0ELS3_0ELS3_0EEC2Ev(ptr noundef nonnull align 1 dereferenceable(1) %2)
  call void @_ZN15LogTargetHandleC2ILN8LogLevel4typeE3ELN6LogTag4typeE148ELS4_58ELS4_0ELS4_0ELS4_0ELS4_0EEERK13LogTargetImplIXT_EXT0_EXT1_EXT2_EXT3_EXT4_EXT5_EE(ptr noundef nonnull align 8 dereferenceable(16) %1, ptr noundef nonnull align 1 dereferenceable(1) %2)
  %3 = load { i32, ptr }, ptr %1, align 8
  ret { i32, ptr } %3
}

; Function Attrs: mustprogress nounwind uwtable
define linkonce_odr hidden noundef ptr @_ZN9vmClasses12String_klassEv() #1 comdat align 2 {
  %1 = load ptr, ptr getelementptr inbounds ([0 x ptr], ptr @_ZN9vmClasses8_klassesE, i64 0, i64 1), align 8
  %2 = call noundef ptr @_ZN9vmClasses11check_klassEP13InstanceKlass(ptr noundef %1)
  ret ptr %2
}

; Function Attrs: mustprogress nounwind uwtable
define hidden void @_ZN11StringDedup10initializeEv() #1 align 2 {
  %1 = alloca %class.GCLogPreciousHandle, align 8
  %2 = alloca %class.LogTargetHandle, align 8
  call void @_ZN11StringDedup5Table18initialize_storageEv()
  call void @_ZN11StringDedup9Processor18initialize_storageEv()
  %3 = load i8, ptr @UseStringDeduplication, align 1
  %4 = trunc i8 %3 to i1
  br i1 %4, label %5, label %18

5:                                                ; preds = %0
  call void @_ZN11StringDedup6Config10initializeEv()
  %6 = call noundef ptr @_ZN9vmClasses12String_klassEv()
  store ptr %6, ptr @_ZN11StringDedup21_string_klass_or_nullE, align 8
  %7 = call noundef i32 @_ZN11StringDedup6Config13age_thresholdEv()
  store i32 %7, ptr @_ZN11StringDedup22_enabled_age_thresholdE, align 4
  %8 = call noundef i32 @_ZN11StringDedup6Config13age_thresholdEv()
  store i32 %8, ptr @_ZN11StringDedup18_enabled_age_limitE, align 4
  call void @_ZN11StringDedup5Table10initializeEv()
  call void @_ZN11StringDedup9Processor10initializeEv()
  store i8 1, ptr @_ZN11StringDedup8_enabledE, align 1
  %9 = call { i32, ptr } @_ZN15LogTargetHandle6createILN8LogLevel4typeE3ELN6LogTag4typeE148ELS4_58ELS4_0ELS4_0ELS4_0ELS4_0EEES_v()
  %10 = getelementptr inbounds { i32, ptr }, ptr %2, i32 0, i32 0
  %11 = extractvalue { i32, ptr } %9, 0
  store i32 %11, ptr %10, align 8
  %12 = getelementptr inbounds { i32, ptr }, ptr %2, i32 0, i32 1
  %13 = extractvalue { i32, ptr } %9, 1
  store ptr %13, ptr %12, align 8
  %14 = getelementptr inbounds { i32, ptr }, ptr %2, i32 0, i32 0
  %15 = load i32, ptr %14, align 8
  %16 = getelementptr inbounds { i32, ptr }, ptr %2, i32 0, i32 1
  %17 = load ptr, ptr %16, align 8
  call void @_ZN19GCLogPreciousHandleC2E15LogTargetHandle(ptr noundef nonnull align 8 dereferenceable(16) %1, i32 %15, ptr %17)
  call void (ptr, ptr, ...) @_ZN19GCLogPreciousHandle5writeEPKcz(ptr noundef nonnull align 8 dereferenceable(16) %1, ptr noundef @.str)
  br label %18

18:                                               ; preds = %5, %0
  store i8 1, ptr @_ZN11StringDedup12_initializedE, align 1
  ret void
}