; Function Attrs: mustprogress nounwind uwtable
define hidden void @_ZN11StringDedup10initializeEv() local_unnamed_addr #1 align 2 {
  %1 = alloca %class.GCLogPreciousHandle, align 8
  tail call void @_ZN11StringDedup5Table18initialize_storageEv() #8
  tail call void @_ZN11StringDedup9Processor18initialize_storageEv() #8
  %2 = load i8, ptr @UseStringDeduplication, align 1
  %3 = trunc i8 %2 to i1
  br i1 %3, label %4, label %8

4:                                                ; preds = %0
  tail call void @_ZN11StringDedup6Config10initializeEv() #8
  %5 = load ptr, ptr getelementptr inbounds (i8, ptr @_ZN9vmClasses8_klassesE, i64 8), align 8
  store ptr %5, ptr @_ZN11StringDedup21_string_klass_or_nullE, align 8
  %6 = tail call noundef i32 @_ZN11StringDedup6Config13age_thresholdEv() #8
  store i32 %6, ptr @_ZN11StringDedup22_enabled_age_thresholdE, align 4
  %7 = tail call noundef i32 @_ZN11StringDedup6Config13age_thresholdEv() #8
  store i32 %7, ptr @_ZN11StringDedup18_enabled_age_limitE, align 4
  tail call void @_ZN11StringDedup5Table10initializeEv() #8
  tail call void @_ZN11StringDedup9Processor10initializeEv() #8
  store i8 1, ptr @_ZN11StringDedup8_enabledE, align 1
  store i32 3, ptr %1, align 8
  %.sroa.21.0..sroa_idx.i = getelementptr inbounds i8, ptr %1, i64 8
  store ptr @_ZN16LogTagSetMappingILN6LogTag4typeE148ELS1_58ELS1_0ELS1_0ELS1_0ELS1_0EE7_tagsetE, ptr %.sroa.21.0..sroa_idx.i, align 8
  call void (ptr, ptr, ...) @_ZN19GCLogPreciousHandle5writeEPKcz(ptr noundef nonnull align 8 dereferenceable(16) %1, ptr noundef nonnull @.str)
  br label %8

8:                                                ; preds = %4, %0
  store i8 1, ptr @_ZN11StringDedup12_initializedE, align 1
  ret void
}